target datalayout = "e-m:e-p270:32:32-p271:32:32-p272:64:64-i64:64-i128:128-f80:128-n8:16:32:64-S128"
target triple = "x86_64-pc-linux-gnu"

; Function Attrs: alwaysinline nounwind uwtable
define internal zeroext i1 @lean_is_scalar(ptr noundef %0) #3 {
  %2 = alloca ptr, align 8
  store ptr %0, ptr %2, align 8, !tbaa !4
  %3 = load ptr, ptr %2, align 8, !tbaa !4
  %4 = ptrtoint ptr %3 to i64
  %5 = and i64 %4, 1
  %6 = icmp eq i64 %5, 1
  ret i1 %6
}

; Function Attrs: inlinehint nounwind uwtable
define internal zeroext i1 @lean_int_eq(ptr noundef %0, ptr noundef %1) #0 {
  %3 = alloca i1, align 1
  %4 = alloca ptr, align 8
  %5 = alloca ptr, align 8
  store ptr %0, ptr %4, align 8, !tbaa !4
  store ptr %1, ptr %5, align 8, !tbaa !4
  %6 = load ptr, ptr %4, align 8, !tbaa !4
  %7 = call zeroext i1 @lean_is_scalar(ptr noundef %6)
  br i1 %7, label %8, label %11

8:                                                ; preds = %2
  %9 = load ptr, ptr %5, align 8, !tbaa !4
  %10 = call zeroext i1 @lean_is_scalar(ptr noundef %9)
  br label %11

11:                                               ; preds = %8, %2
  %12 = phi i1 [ false, %2 ], [ %10, %8 ]
  %13 = zext i1 %12 to i32
  %14 = sext i32 %13 to i64
  %15 = call i64 @llvm.expect.i64(i64 %14, i64 1)
  %16 = icmp ne i64 %15, 0
  br i1 %16, label %17, label %21

17:                                               ; preds = %11
  %18 = load ptr, ptr %4, align 8, !tbaa !4
  %19 = load ptr, ptr %5, align 8, !tbaa !4
  %20 = icmp eq ptr %18, %19
  store i1 %20, ptr %3, align 1
  br label %25

21:                                               ; preds = %11
  %22 = load ptr, ptr %4, align 8, !tbaa !4
  %23 = load ptr, ptr %5, align 8, !tbaa !4
  %24 = call zeroext i1 @lean_int_big_eq(ptr noundef %22, ptr noundef %23)
  store i1 %24, ptr %3, align 1
  br label %25

25:                                               ; preds = %21, %17
  %26 = load i1, ptr %3, align 1
  ret i1 %26
}

; Function Attrs: inlinehint nounwind uwtable
define internal zeroext i8 @lean_int_dec_eq(ptr noundef %0, ptr noundef %1) #0 {
  %3 = alloca ptr, align 8
  %4 = alloca ptr, align 8
  store ptr %0, ptr %3, align 8, !tbaa !4
  store ptr %1, ptr %4, align 8, !tbaa !4
  %5 = load ptr, ptr %3, align 8, !tbaa !4
  %6 = load ptr, ptr %4, align 8, !tbaa !4
  %7 = call zeroext i1 @lean_int_eq(ptr noundef %5, ptr noundef %6)
  %8 = zext i1 %7 to i8
  ret i8 %8
}

; Function Attrs: nounwind uwtable
define zeroext i8 @l_Std_Time_Nanosecond_Ordinal_instOfDayDecidableEq(ptr noundef %0, ptr noundef %1) #1 {
  %3 = alloca ptr, align 8
  %4 = alloca ptr, align 8
  %5 = alloca i8, align 1
  store ptr %0, ptr %3, align 8, !tbaa !4
  store ptr %1, ptr %4, align 8, !tbaa !4
  br label %6

6:                                                ; preds = %2
  call void @llvm.lifetime.start.p0(i64 1, ptr %5) #7
  %7 = load ptr, ptr %3, align 8, !tbaa !4
  %8 = load ptr, ptr %4, align 8, !tbaa !4
  %9 = call zeroext i8 @lean_int_dec_eq(ptr noundef %7, ptr noundef %8)
  store i8 %9, ptr %5, align 1, !tbaa !10
  %10 = load i8, ptr %5, align 1, !tbaa !10
  call void @llvm.lifetime.end.p0(i64 1, ptr %5) #7
  ret i8 %10
}